target datalayout = "e-m:e-p270:32:32-p271:32:32-p272:64:64-i64:64-i128:128-f80:128-n8:16:32:64-S128"
target triple = "x86_64-pc-linux-gnu"

%"struct.llvm::LoongArch::ArchInfo" = type { %"class.llvm::StringRef", i32, i32 }
%"class.llvm::StringRef" = type { ptr, i64 }

; Function Attrs: mustprogress nounwind uwtable
define dso_local void @_ZN4llvm9LoongArch16fillValidCPUListERNS_15SmallVectorImplINS_9StringRefEEE(ptr noundef nonnull align 8 dereferenceable(16) %0) #0 {
  %2 = alloca ptr, align 8
  %3 = alloca ptr, align 8
  %4 = alloca ptr, align 8
  %5 = alloca ptr, align 8
  %6 = alloca %"struct.llvm::LoongArch::ArchInfo", align 8
  store ptr %0, ptr %2, align 8
  store ptr @_ZL8AllArchs, ptr %3, align 8
  store ptr @_ZL8AllArchs, ptr %4, align 8
  store ptr getelementptr inbounds (%"struct.llvm::LoongArch::ArchInfo", ptr @_ZL8AllArchs, i64 3), ptr %5, align 8
  br label %7

7:                                                ; preds = %16, %1
  %8 = load ptr, ptr %4, align 8
  %9 = load ptr, ptr %5, align 8
  %10 = icmp ne ptr %8, %9
  br i1 %10, label %11, label %19

11:                                               ; preds = %7
  %12 = load ptr, ptr %4, align 8
  call void @llvm.memcpy.p0.p0.i64(ptr align 8 %6, ptr align 8 %12, i64 24, i1 false)
  %13 = load ptr, ptr %2, align 8
  %14 = getelementptr inbounds nuw %"struct.llvm::LoongArch::ArchInfo", ptr %6, i32 0, i32 0
  %15 = call noundef nonnull align 8 dereferenceable(16) ptr @_ZN4llvm15SmallVectorImplINS_9StringRefEE12emplace_backIJRKS1_EEERS1_DpOT_(ptr noundef nonnull align 8 dereferenceable(16) %13, ptr noundef nonnull align 8 dereferenceable(16) %14)
  br label %16

16:                                               ; preds = %11
  %17 = load ptr, ptr %4, align 8
  %18 = getelementptr inbounds %"struct.llvm::LoongArch::ArchInfo", ptr %17, i32 1
  store ptr %18, ptr %4, align 8
  br label %7

19:                                               ; preds = %7
  ret void
}