; Function Attrs: mustprogress nounwind uwtable
define dso_local void @_ZN4llvm9LoongArch16fillValidCPUListERNS_15SmallVectorImplINS_9StringRefEEE(ptr noundef nonnull align 8 dereferenceable(16) %0) local_unnamed_addr #2 {
  %2 = alloca %"struct.llvm::LoongArch::ArchInfo", align 8
  br label %3

3:                                                ; preds = %1, %3
  %.0.idx5 = phi i64 [ 0, %1 ], [ %.0.add, %3 ]
  %.0.ptr = getelementptr inbounds nuw i8, ptr @_ZL8AllArchs, i64 %.0.idx5
  call void @llvm.memcpy.p0.p0.i64(ptr noundef nonnull align 8 dereferenceable(24) %2, ptr noundef nonnull align 8 dereferenceable(24) %.0.ptr, i64 24, i1 false)
  %4 = call noundef nonnull align 8 dereferenceable(16) ptr @_ZN4llvm15SmallVectorImplINS_9StringRefEE12emplace_backIJRKS1_EEERS1_DpOT_(ptr noundef nonnull align 8 dereferenceable(16) %0, ptr noundef nonnull align 8 dereferenceable(16) %2)
  %.0.add = add nuw nsw i64 %.0.idx5, 24
  %.not = icmp eq i64 %.0.add, 72
  br i1 %.not, label %5, label %3

5:                                                ; preds = %3
  ret void
}